target datalayout = "e-m:e-p270:32:32-p271:32:32-p272:64:64-i64:64-i128:128-f80:128-n8:16:32:64-S128"
target triple = "x86_64-pc-linux-gnu"

%struct.JSValue = type { %union.JSValueUnion, i64 }
%union.JSValueUnion = type { double }
%struct.JSSTDFile = type { ptr, i32, i32 }

@js_std_file_class_id = internal global i32 0, align 4
@.str.41 = private unnamed_addr constant [20 x i8] c"invalid file handle\00", align 1

; Function Attrs: nounwind uwtable
define internal { i64, i64 } @__JS_NewFloat64(ptr noundef %0, double noundef %1) #0 {
  %3 = alloca %struct.JSValue, align 8
  %4 = alloca ptr, align 8
  %5 = alloca double, align 8
  store ptr %0, ptr %4, align 8
  store double %1, ptr %5, align 8
  %6 = getelementptr inbounds %struct.JSValue, ptr %3, i32 0, i32 1
  store i64 7, ptr %6, align 8
  %7 = load double, ptr %5, align 8
  %8 = getelementptr inbounds %struct.JSValue, ptr %3, i32 0, i32 0
  store double %7, ptr %8, align 8
  %9 = load { i64, i64 }, ptr %3, align 8
  ret { i64, i64 } %9
}

; Function Attrs: nounwind uwtable
define internal ptr @js_std_file_get(ptr noundef %0, i64 %1, i64 %2) #0 {
  %4 = alloca ptr, align 8
  %5 = alloca %struct.JSValue, align 8
  %6 = alloca ptr, align 8
  %7 = alloca ptr, align 8
  %8 = alloca %struct.JSValue, align 8
  %9 = getelementptr inbounds { i64, i64 }, ptr %5, i32 0, i32 0
  store i64 %1, ptr %9, align 8
  %10 = getelementptr inbounds { i64, i64 }, ptr %5, i32 0, i32 1
  store i64 %2, ptr %10, align 8
  store ptr %0, ptr %6, align 8
  %11 = load ptr, ptr %6, align 8
  %12 = load i32, ptr @js_std_file_class_id, align 4
  %13 = getelementptr inbounds { i64, i64 }, ptr %5, i32 0, i32 0
  %14 = load i64, ptr %13, align 8
  %15 = getelementptr inbounds { i64, i64 }, ptr %5, i32 0, i32 1
  %16 = load i64, ptr %15, align 8
  %17 = call ptr @JS_GetOpaque2(ptr noundef %11, i64 %14, i64 %16, i32 noundef %12)
  store ptr %17, ptr %7, align 8
  %18 = load ptr, ptr %7, align 8
  %19 = icmp ne ptr %18, null
  br i1 %19, label %21, label %20

20:                                               ; preds = %3
  store ptr null, ptr %4, align 8
  br label %37

21:                                               ; preds = %3
  %22 = load ptr, ptr %7, align 8
  %23 = getelementptr inbounds %struct.JSSTDFile, ptr %22, i32 0, i32 0
  %24 = load ptr, ptr %23, align 8
  %25 = icmp ne ptr %24, null
  br i1 %25, label %33, label %26

26:                                               ; preds = %21
  %27 = load ptr, ptr %6, align 8
  %28 = call { i64, i64 } (ptr, ptr, ...) @JS_ThrowTypeError(ptr noundef %27, ptr noundef @.str.41)
  %29 = getelementptr inbounds { i64, i64 }, ptr %8, i32 0, i32 0
  %30 = extractvalue { i64, i64 } %28, 0
  store i64 %30, ptr %29, align 8
  %31 = getelementptr inbounds { i64, i64 }, ptr %8, i32 0, i32 1
  %32 = extractvalue { i64, i64 } %28, 1
  store i64 %32, ptr %31, align 8
  store ptr null, ptr %4, align 8
  br label %37

33:                                               ; preds = %21
  %34 = load ptr, ptr %7, align 8
  %35 = getelementptr inbounds %struct.JSSTDFile, ptr %34, i32 0, i32 0
  %36 = load ptr, ptr %35, align 8
  store ptr %36, ptr %4, align 8
  br label %37

37:                                               ; preds = %33, %26, %20
  %38 = load ptr, ptr %4, align 8
  ret ptr %38
}

; Function Attrs: nounwind uwtable
define internal { i64, i64 } @js_std_file_tell(ptr noundef %0, i64 %1, i64 %2, i32 noundef %3, ptr noundef %4, i32 noundef %5) #0 {
  %7 = alloca %struct.JSValue, align 8
  %8 = alloca ptr, align 8
  %9 = alloca i32, align 4
  %10 = alloca %struct.JSValue, align 8
  %11 = alloca ptr, align 8
  %12 = alloca i64, align 8
  %13 = alloca %struct.JSValue, align 8
  %14 = alloca %struct.JSValue, align 8
  %15 = alloca %struct.JSValue, align 8
  %16 = alloca %struct.JSValue, align 8
  %17 = alloca ptr, align 8
  %18 = alloca i32, align 4
  %19 = alloca ptr, align 8
  %20 = alloca i32, align 4
  %21 = alloca ptr, align 8
  %22 = alloca i64, align 8
  %23 = getelementptr inbounds { i64, i64 }, ptr %16, i32 0, i32 0
  store i64 %1, ptr %23, align 8
  %24 = getelementptr inbounds { i64, i64 }, ptr %16, i32 0, i32 1
  store i64 %2, ptr %24, align 8
  store ptr %0, ptr %17, align 8
  store i32 %3, ptr %18, align 4
  store ptr %4, ptr %19, align 8
  store i32 %5, ptr %20, align 4
  %25 = load ptr, ptr %17, align 8
  %26 = getelementptr inbounds { i64, i64 }, ptr %16, i32 0, i32 0
  %27 = load i64, ptr %26, align 8
  %28 = getelementptr inbounds { i64, i64 }, ptr %16, i32 0, i32 1
  %29 = load i64, ptr %28, align 8
  %30 = call ptr @js_std_file_get(ptr noundef %25, i64 %27, i64 %29)
  store ptr %30, ptr %21, align 8
  %31 = load ptr, ptr %21, align 8
  %32 = icmp ne ptr %31, null
  br i1 %32, label %36, label %33

33:                                               ; preds = %6
  %34 = getelementptr inbounds %struct.JSValue, ptr %15, i32 0, i32 0
  store i32 0, ptr %34, align 8
  %35 = getelementptr inbounds %struct.JSValue, ptr %15, i32 0, i32 1
  store i64 6, ptr %35, align 8
  br label %81

36:                                               ; preds = %6
  %37 = load ptr, ptr %21, align 8
  %38 = call i64 @ftello(ptr noundef %37)
  store i64 %38, ptr %22, align 8
  %39 = load i32, ptr %20, align 4
  %40 = icmp ne i32 %39, 0
  br i1 %40, label %41, label %49

41:                                               ; preds = %36
  %42 = load ptr, ptr %17, align 8
  %43 = load i64, ptr %22, align 8
  %44 = call { i64, i64 } @JS_NewBigInt64(ptr noundef %42, i64 noundef %43)
  %45 = getelementptr inbounds { i64, i64 }, ptr %15, i32 0, i32 0
  %46 = extractvalue { i64, i64 } %44, 0
  store i64 %46, ptr %45, align 8
  %47 = getelementptr inbounds { i64, i64 }, ptr %15, i32 0, i32 1
  %48 = extractvalue { i64, i64 } %44, 1
  store i64 %48, ptr %47, align 8
  br label %81

49:                                               ; preds = %36
  %50 = load ptr, ptr %17, align 8
  %51 = load i64, ptr %22, align 8
  store ptr %50, ptr %11, align 8
  store i64 %51, ptr %12, align 8
  %52 = load i64, ptr %12, align 8
  %53 = load i64, ptr %12, align 8
  %54 = trunc i64 %53 to i32
  %55 = sext i32 %54 to i64
  %56 = icmp eq i64 %52, %55
  br i1 %56, label %57, label %67

57:                                               ; preds = %49
  %58 = load ptr, ptr %11, align 8
  %59 = load i64, ptr %12, align 8
  %60 = trunc i64 %59 to i32
  store ptr %58, ptr %8, align 8
  store i32 %60, ptr %9, align 4
  %61 = load i32, ptr %9, align 4
  store i32 %61, ptr %7, align 8
  %62 = getelementptr inbounds %struct.JSValue, ptr %7, i32 0, i32 1
  store i64 0, ptr %62, align 8
  %63 = load { i64, i64 }, ptr %7, align 8
  %64 = extractvalue { i64, i64 } %63, 0
  store i64 %64, ptr %13, align 8
  %65 = getelementptr inbounds { i64, i64 }, ptr %13, i32 0, i32 1
  %66 = extractvalue { i64, i64 } %63, 1
  store i64 %66, ptr %65, align 8
  call void @llvm.memcpy.p0.p0.i64(ptr align 8 %10, ptr align 8 %13, i64 16, i1 false)
  br label %75

67:                                               ; preds = %49
  %68 = load ptr, ptr %11, align 8
  %69 = load i64, ptr %12, align 8
  %70 = sitofp i64 %69 to double
  %71 = call { i64, i64 } @__JS_NewFloat64(ptr noundef %68, double noundef %70)
  %72 = extractvalue { i64, i64 } %71, 0
  store i64 %72, ptr %14, align 8
  %73 = getelementptr inbounds { i64, i64 }, ptr %14, i32 0, i32 1
  %74 = extractvalue { i64, i64 } %71, 1
  store i64 %74, ptr %73, align 8
  call void @llvm.memcpy.p0.p0.i64(ptr align 8 %10, ptr align 8 %14, i64 16, i1 false)
  br label %75

75:                                               ; preds = %67, %57
  %76 = load { i64, i64 }, ptr %10, align 8
  %77 = getelementptr inbounds { i64, i64 }, ptr %15, i32 0, i32 0
  %78 = extractvalue { i64, i64 } %76, 0
  store i64 %78, ptr %77, align 8
  %79 = getelementptr inbounds { i64, i64 }, ptr %15, i32 0, i32 1
  %80 = extractvalue { i64, i64 } %76, 1
  store i64 %80, ptr %79, align 8
  br label %81

81:                                               ; preds = %75, %41, %33
  %82 = load { i64, i64 }, ptr %15, align 8
  ret { i64, i64 } %82
}