; Function Attrs: nounwind uwtable
define internal { i64, i64 } @js_std_file_tell(ptr noundef %0, i64 %1, i64 %2, i32 %3, ptr nocapture readnone %4, i32 noundef %5) #0 {
  %7 = load i32, ptr @js_std_file_class_id, align 4
  %8 = tail call ptr @JS_GetOpaque2(ptr noundef %0, i64 %1, i64 %2, i32 noundef %7) #29
  %.not.i = icmp eq ptr %8, null
  br i1 %.not.i, label %js_std_file_get.exit.thread, label %9

9:                                                ; preds = %6
  %10 = load ptr, ptr %8, align 8
  %.not9.i = icmp eq ptr %10, null
  br i1 %.not9.i, label %11, label %js_std_file_get.exit

11:                                               ; preds = %9
  %12 = tail call { i64, i64 } (ptr, ptr, ...) @JS_ThrowTypeError(ptr noundef %0, ptr noundef nonnull @.str.41) #29
  br label %js_std_file_get.exit.thread

js_std_file_get.exit:                             ; preds = %9
  %13 = tail call i64 @ftello(ptr noundef nonnull %10)
  %.not32 = icmp eq i32 %5, 0
  br i1 %.not32, label %18, label %14

14:                                               ; preds = %js_std_file_get.exit
  %15 = tail call { i64, i64 } @JS_NewBigInt64(ptr noundef %0, i64 noundef %13) #29
  %16 = extractvalue { i64, i64 } %15, 0
  %.sroa.4.0.extract.shift = and i64 %16, -4294967296
  %17 = extractvalue { i64, i64 } %15, 1
  br label %js_std_file_get.exit.thread

18:                                               ; preds = %js_std_file_get.exit
  %19 = add i64 %13, 2147483648
  %20 = icmp ult i64 %19, 4294967296
  %.sroa.029.0.insert.ext = and i64 %13, 4294967295
  %21 = sitofp i64 %13 to double
  %22 = bitcast double %21 to i64
  %.sroa.025.0 = select i1 %20, i64 %.sroa.029.0.insert.ext, i64 %22
  %.sroa.3.0 = select i1 %20, i64 0, i64 7
  %.sroa.4.0.extract.shift9 = and i64 %.sroa.025.0, -4294967296
  br label %js_std_file_get.exit.thread

js_std_file_get.exit.thread:                      ; preds = %6, %11, %18, %14
  %.sroa.07.0 = phi i64 [ %16, %14 ], [ %.sroa.025.0, %18 ], [ 0, %11 ], [ 0, %6 ]
  %.sroa.4.sroa.0.0 = phi i64 [ %.sroa.4.0.extract.shift, %14 ], [ %.sroa.4.0.extract.shift9, %18 ], [ 0, %11 ], [ 0, %6 ]
  %.sroa.4.sroa.3.0 = phi i64 [ %17, %14 ], [ %.sroa.3.0, %18 ], [ 6, %11 ], [ 6, %6 ]
  %.sroa.07.0.insert.ext = and i64 %.sroa.07.0, 4294967295
  %.sroa.07.0.insert.insert = or disjoint i64 %.sroa.4.sroa.0.0, %.sroa.07.0.insert.ext
  %.fca.0.insert = insertvalue { i64, i64 } poison, i64 %.sroa.07.0.insert.insert, 0
  %.fca.1.insert = insertvalue { i64, i64 } %.fca.0.insert, i64 %.sroa.4.sroa.3.0, 1
  ret { i64, i64 } %.fca.1.insert
}